; Function Attrs: mustprogress uwtable
define void @_ZNK6casadi8Function11export_codeERKNSt7__cxx1112basic_stringIcSt11char_traitsIcESaIcEEES8_RKSt3mapIS6_NS_11GenericTypeESt4lessIS6_ESaISt4pairIS7_SA_EEE(ptr noundef nonnull align 8 dereferenceable(8) %0, ptr noundef nonnull align 8 dereferenceable(32) %1, ptr noundef nonnull align 8 dereferenceable(32) %2, ptr noundef nonnull align 8 dereferenceable(48) %3) local_unnamed_addr #4 align 2 personality ptr @__gxx_personality_v0 {
  %5 = alloca %"class.std::basic_ofstream", align 8
  call void @llvm.lifetime.start.p0(i64 512, ptr nonnull %5) #30
  call void @_ZNSt14basic_ofstreamIcSt11char_traitsIcEEC1ERKNSt7__cxx1112basic_stringIcS1_SaIcEEESt13_Ios_Openmode(ptr noundef nonnull align 8 dereferenceable(248) %5, ptr noundef nonnull align 8 dereferenceable(32) %2, i32 noundef 16)
  %6 = invoke noundef ptr @_ZNK6casadi8FunctionptEv(ptr noundef nonnull align 8 dereferenceable(8) %0)
          to label %7 unwind label %12

7:                                                ; preds = %4
  %8 = load ptr, ptr %6, align 8, !tbaa !25
  %9 = getelementptr inbounds nuw i8, ptr %8, i64 656
  %10 = load ptr, ptr %9, align 8
  invoke void %10(ptr noundef nonnull align 8 dereferenceable(1312) %6, ptr noundef nonnull align 8 dereferenceable(32) %1, ptr noundef nonnull align 8 dereferenceable(8) %5, ptr noundef nonnull align 8 dereferenceable(48) %3)
          to label %11 unwind label %12

11:                                               ; preds = %7
  call void @_ZNSt14basic_ofstreamIcSt11char_traitsIcEED1Ev(ptr noundef nonnull align 8 dereferenceable(248) %5) #30
  call void @llvm.lifetime.end.p0(i64 512, ptr nonnull %5) #30
  ret void

12:                                               ; preds = %7, %4
  %13 = landingpad { ptr, i32 }
          cleanup
  call void @_ZNSt14basic_ofstreamIcSt11char_traitsIcEED1Ev(ptr noundef nonnull align 8 dereferenceable(248) %5) #30
  call void @llvm.lifetime.end.p0(i64 512, ptr nonnull %5) #30
  resume { ptr, i32 } %13
}